target datalayout = "e-m:e-p270:32:32-p271:32:32-p272:64:64-i64:64-i128:128-f80:128-n8:16:32:64-S128"
target triple = "x86_64-unknown-linux-gnu"

%"class.OpenImageIO_v2_6_0::BmpOutput" = type { %"class.OpenImageIO_v2_6_0::ImageOutput", i64, %"class.std::__cxx11::basic_string", %"class.OpenImageIO_v2_6_0::bmp_pvt::BmpFileHeader", %"class.OpenImageIO_v2_6_0::bmp_pvt::DibInformationHeader", i64, i32, %"class.std::vector.16", %"class.std::vector.16", %"class.std::vector.16" }
%"class.OpenImageIO_v2_6_0::ImageOutput" = type { ptr, %"class.OpenImageIO_v2_6_0::ImageSpec", %"class.std::unique_ptr" }
%"class.OpenImageIO_v2_6_0::ImageSpec" = type { i32, i32, i32, i32, i32, i32, i32, i32, i32, i32, i32, i32, i32, i32, i32, i32, %"struct.OpenImageIO_v2_6_0::TypeDesc", %"class.std::vector", %"class.std::vector.0", i32, i32, i8, %"class.OpenImageIO_v2_6_0::ParamValueList" }
%"struct.OpenImageIO_v2_6_0::TypeDesc" = type { i8, i8, i8, i8, i32 }
%"class.std::vector" = type { %"struct.std::_Vector_base" }
%"struct.std::_Vector_base" = type { %"struct.std::_Vector_base<OpenImageIO_v2_6_0::TypeDesc, std::allocator<OpenImageIO_v2_6_0::TypeDesc>>::_Vector_impl" }
%"struct.std::_Vector_base<OpenImageIO_v2_6_0::TypeDesc, std::allocator<OpenImageIO_v2_6_0::TypeDesc>>::_Vector_impl" = type { %"struct.std::_Vector_base<OpenImageIO_v2_6_0::TypeDesc, std::allocator<OpenImageIO_v2_6_0::TypeDesc>>::_Vector_impl_data" }
%"struct.std::_Vector_base<OpenImageIO_v2_6_0::TypeDesc, std::allocator<OpenImageIO_v2_6_0::TypeDesc>>::_Vector_impl_data" = type { ptr, ptr, ptr }
%"class.std::vector.0" = type { %"struct.std::_Vector_base.1" }
%"struct.std::_Vector_base.1" = type { %"struct.std::_Vector_base<std::__cxx11::basic_string<char>, std::allocator<std::__cxx11::basic_string<char>>>::_Vector_impl" }
%"struct.std::_Vector_base<std::__cxx11::basic_string<char>, std::allocator<std::__cxx11::basic_string<char>>>::_Vector_impl" = type { %"struct.std::_Vector_base<std::__cxx11::basic_string<char>, std::allocator<std::__cxx11::basic_string<char>>>::_Vector_impl_data" }
%"struct.std::_Vector_base<std::__cxx11::basic_string<char>, std::allocator<std::__cxx11::basic_string<char>>>::_Vector_impl_data" = type { ptr, ptr, ptr }
%"class.OpenImageIO_v2_6_0::ParamValueList" = type { %"class.std::vector.5" }
%"class.std::vector.5" = type { %"struct.std::_Vector_base.6" }
%"struct.std::_Vector_base.6" = type { %"struct.std::_Vector_base<OpenImageIO_v2_6_0::ParamValue, std::allocator<OpenImageIO_v2_6_0::ParamValue>>::_Vector_impl" }
%"struct.std::_Vector_base<OpenImageIO_v2_6_0::ParamValue, std::allocator<OpenImageIO_v2_6_0::ParamValue>>::_Vector_impl" = type { %"struct.std::_Vector_base<OpenImageIO_v2_6_0::ParamValue, std::allocator<OpenImageIO_v2_6_0::ParamValue>>::_Vector_impl_data" }
%"struct.std::_Vector_base<OpenImageIO_v2_6_0::ParamValue, std::allocator<OpenImageIO_v2_6_0::ParamValue>>::_Vector_impl_data" = type { ptr, ptr, ptr }
%"class.std::unique_ptr" = type { %"struct.std::__uniq_ptr_data" }
%"struct.std::__uniq_ptr_data" = type { %"class.std::__uniq_ptr_impl" }
%"class.std::__uniq_ptr_impl" = type { %"class.std::tuple" }
%"class.std::tuple" = type { %"struct.std::_Tuple_impl" }
%"struct.std::_Tuple_impl" = type { %"struct.std::_Tuple_impl.10", %"struct.std::_Head_base.11" }
%"struct.std::_Tuple_impl.10" = type { %"struct.std::_Head_base" }
%"struct.std::_Head_base" = type { ptr }
%"struct.std::_Head_base.11" = type { ptr }
%"class.std::__cxx11::basic_string" = type { %"struct.std::__cxx11::basic_string<char>::_Alloc_hider", i64, %union.anon.15 }
%"struct.std::__cxx11::basic_string<char>::_Alloc_hider" = type { ptr }
%union.anon.15 = type { i64, [8 x i8] }
%"class.OpenImageIO_v2_6_0::bmp_pvt::BmpFileHeader" = type { i16, i32, i16, i16, i32 }
%"class.OpenImageIO_v2_6_0::bmp_pvt::DibInformationHeader" = type { i32, i32, i32, i16, i16, i32, i32, i32, i32, i32, i32, i32, i32, i32, i32, i32, i32, i32, i32, i32, i32, i32, i32, i32, i32, i32, i32, i32, i32, i32, i32, i32 }
%"class.std::vector.16" = type { %"struct.std::_Vector_base.17" }
%"struct.std::_Vector_base.17" = type { %"struct.std::_Vector_base<unsigned char, std::allocator<unsigned char>>::_Vector_impl" }
%"struct.std::_Vector_base<unsigned char, std::allocator<unsigned char>>::_Vector_impl" = type { %"struct.std::_Vector_base<unsigned char, std::allocator<unsigned char>>::_Vector_impl_data" }
%"struct.std::_Vector_base<unsigned char, std::allocator<unsigned char>>::_Vector_impl_data" = type { ptr, ptr, ptr }

; Function Attrs: mustprogress uwtable
define hidden void @_ZN18OpenImageIO_v2_6_09BmpOutput28create_and_write_file_headerEv(ptr noundef nonnull align 8 dereferenceable(456) %this) #6 align 2 {
entry:
  %this.addr = alloca ptr, align 8
  %data_size = alloca i64, align 8
  %palettesize = alloca i32, align 4
  %file_size = alloca i64, align 8
  store ptr %this, ptr %this.addr, align 8
  %this1 = load ptr, ptr %this.addr, align 8
  %m_bmp_header = getelementptr inbounds %"class.OpenImageIO_v2_6_0::BmpOutput", ptr %this1, i32 0, i32 3
  %magic = getelementptr inbounds %"class.OpenImageIO_v2_6_0::bmp_pvt::BmpFileHeader", ptr %m_bmp_header, i32 0, i32 0
  store i16 19778, ptr %magic, align 8
  %m_padded_scanline_size = getelementptr inbounds %"class.OpenImageIO_v2_6_0::BmpOutput", ptr %this1, i32 0, i32 1
  %0 = load i64, ptr %m_padded_scanline_size, align 8
  %m_spec = getelementptr inbounds %"class.OpenImageIO_v2_6_0::ImageOutput", ptr %this1, i32 0, i32 1
  %height = getelementptr inbounds %"class.OpenImageIO_v2_6_0::ImageSpec", ptr %m_spec, i32 0, i32 4
  %1 = load i32, ptr %height, align 8
  %conv = sext i32 %1 to i64
  %mul = mul nsw i64 %0, %conv
  store i64 %mul, ptr %data_size, align 8
  %m_spec2 = getelementptr inbounds %"class.OpenImageIO_v2_6_0::ImageOutput", ptr %this1, i32 0, i32 1
  %nchannels = getelementptr inbounds %"class.OpenImageIO_v2_6_0::ImageSpec", ptr %m_spec2, i32 0, i32 15
  %2 = load i32, ptr %nchannels, align 4
  %cmp = icmp eq i32 %2, 1
  %cond = select i1 %cmp, i32 1024, i32 0
  store i32 %cond, ptr %palettesize, align 4
  %3 = load i64, ptr %data_size, align 8
  %add = add nsw i64 %3, 14
  %add3 = add nsw i64 %add, 40
  %4 = load i32, ptr %palettesize, align 4
  %conv4 = sext i32 %4 to i64
  %add5 = add nsw i64 %add3, %conv4
  store i64 %add5, ptr %file_size, align 8
  %5 = load i64, ptr %file_size, align 8
  %conv6 = trunc i64 %5 to i32
  %m_bmp_header7 = getelementptr inbounds %"class.OpenImageIO_v2_6_0::BmpOutput", ptr %this1, i32 0, i32 3
  %fsize = getelementptr inbounds %"class.OpenImageIO_v2_6_0::bmp_pvt::BmpFileHeader", ptr %m_bmp_header7, i32 0, i32 1
  store i32 %conv6, ptr %fsize, align 4
  %m_bmp_header8 = getelementptr inbounds %"class.OpenImageIO_v2_6_0::BmpOutput", ptr %this1, i32 0, i32 3
  %res1 = getelementptr inbounds %"class.OpenImageIO_v2_6_0::bmp_pvt::BmpFileHeader", ptr %m_bmp_header8, i32 0, i32 2
  store i16 0, ptr %res1, align 8
  %m_bmp_header9 = getelementptr inbounds %"class.OpenImageIO_v2_6_0::BmpOutput", ptr %this1, i32 0, i32 3
  %res2 = getelementptr inbounds %"class.OpenImageIO_v2_6_0::bmp_pvt::BmpFileHeader", ptr %m_bmp_header9, i32 0, i32 3
  store i16 0, ptr %res2, align 2
  %6 = load i32, ptr %palettesize, align 4
  %add10 = add nsw i32 54, %6
  %m_bmp_header11 = getelementptr inbounds %"class.OpenImageIO_v2_6_0::BmpOutput", ptr %this1, i32 0, i32 3
  %offset = getelementptr inbounds %"class.OpenImageIO_v2_6_0::bmp_pvt::BmpFileHeader", ptr %m_bmp_header11, i32 0, i32 4
  store i32 %add10, ptr %offset, align 4
  %m_bmp_header12 = getelementptr inbounds %"class.OpenImageIO_v2_6_0::BmpOutput", ptr %this1, i32 0, i32 3
  %call = call noundef ptr @_ZN18OpenImageIO_v2_6_011ImageOutput7ioproxyEv(ptr noundef nonnull align 8 dereferenceable(184) %this1)
  %call13 = call noundef zeroext i1 @_ZN18OpenImageIO_v2_6_07bmp_pvt13BmpFileHeader12write_headerEPNS_10Filesystem7IOProxyE(ptr noundef nonnull align 4 dereferenceable(16) %m_bmp_header12, ptr noundef %call)
  ret void
}