; Function Attrs: mustprogress uwtable
define hidden void @_ZN18OpenImageIO_v2_6_09BmpOutput28create_and_write_file_headerEv(ptr noundef nonnull align 8 dereferenceable(456) %this) local_unnamed_addr #5 align 2 {
entry:
  %m_bmp_header = getelementptr inbounds i8, ptr %this, i64 224
  store i16 19778, ptr %m_bmp_header, align 8
  %m_padded_scanline_size = getelementptr inbounds i8, ptr %this, i64 184
  %0 = load i64, ptr %m_padded_scanline_size, align 8
  %height = getelementptr inbounds i8, ptr %this, i64 24
  %1 = load i32, ptr %height, align 8
  %nchannels = getelementptr inbounds i8, ptr %this, i64 68
  %2 = load i32, ptr %nchannels, align 4
  %cmp = icmp eq i32 %2, 1
  %cond = select i1 %cmp, i32 1024, i32 0
  %3 = trunc i64 %0 to i32
  %4 = mul i32 %1, %3
  %5 = add i32 %4, 54
  %conv6 = add i32 %5, %cond
  %fsize = getelementptr inbounds i8, ptr %this, i64 228
  store i32 %conv6, ptr %fsize, align 4
  %res1 = getelementptr inbounds i8, ptr %this, i64 232
  store i16 0, ptr %res1, align 8
  %res2 = getelementptr inbounds i8, ptr %this, i64 234
  store i16 0, ptr %res2, align 2
  %add10 = or disjoint i32 %cond, 54
  %offset = getelementptr inbounds i8, ptr %this, i64 236
  store i32 %add10, ptr %offset, align 4
  %call = tail call noundef ptr @_ZN18OpenImageIO_v2_6_011ImageOutput7ioproxyEv(ptr noundef nonnull align 8 dereferenceable(184) %this)
  %call13 = tail call noundef zeroext i1 @_ZN18OpenImageIO_v2_6_07bmp_pvt13BmpFileHeader12write_headerEPNS_10Filesystem7IOProxyE(ptr noundef nonnull align 4 dereferenceable(16) %m_bmp_header, ptr noundef %call)
  ret void
}